Certificate:
    Data:
        Version: 3 (0x2)
        Serial Number: 1 (0x1)
    Signature Algorithm: sha256WithRSAEncryption
        Issuer: C=ES, O=Org31, CN=CA para Organizacion 31
        Validity
            Not Before: Dec  6 21:02:00 2015 GMT
            Not After : Dec  5 21:02:00 2016 GMT
        Subject: C=ES, O=Org31, CN=server.org31
        Subject Public Key Info:
            Public Key Algorithm: rsaEncryption
                Public-Key: (1024 bit)
                Modulus:
                    00:dc:01:93:4a:b3:11:65:e5:2e:d5:4c:71:cf:cc:
                    e5:ea:f1:16:fe:55:60:dc:d5:fe:6d:3c:3f:0a:6a:
                    57:2f:f5:e1:59:42:a5:98:f6:7a:80:a1:12:28:4c:
                    8f:95:b7:d1:e1:50:7a:74:88:c3:ad:c8:ed:bd:8d:
                    31:7b:f3:3e:41:5d:14:1e:c9:7a:0b:59:2c:5b:3f:
                    93:c7:c0:88:a0:54:bd:0d:4f:4a:b8:48:2e:15:01:
                    f3:0c:8b:6b:d8:f7:d3:35:e6:13:e8:6a:f1:80:ca:
                    e8:ac:13:09:58:42:cc:f9:e3:c2:92:94:9c:32:40:
                    38:a5:c2:8f:9f:f7:0d:bc:19
                Exponent: 65537 (0x10001)
        X509v3 extensions:
            X509v3 Basic Constraints: 
                CA:FALSE
            Netscape Comment: 
                OpenSSL Generated Certificate
            X509v3 Subject Key Identifier: 
                57:24:C4:DE:F3:26:46:5A:49:D3:DA:13:57:10:AE:50:60:A3:BA:6E
            X509v3 Authority Key Identifier: 
                keyid:18:0A:E9:00:5A:02:7B:A0:5B:97:73:CF:C3:5D:22:DA:91:7F:75:77

    Signature Algorithm: sha256WithRSAEncryption
         74:43:22:65:ea:97:7f:d5:2f:e4:6e:ea:24:5f:fc:22:a8:3d:
         a0:83:f1:ab:49:13:28:68:32:13:6e:26:16:c5:c4:6b:0c:94:
         e6:26:13:55:80:70:59:26:0e:45:2b:79:06:85:df:35:c5:be:
         d2:53:e8:17:38:9b:7e:e7:fd:46:69:af:7e:3b:58:42:87:32:
         c0:ae:a6:b5:0d:9a:be:b1:95:98:15:c2:ec:06:ce:6e:ef:15:
         75:e7:26:56:12:07:f4:fd:76:c0:1e:1d:04:f5:c2:eb:1a:a2:
         4a:47:a5:9b:bc:76:0a:82:5b:71:34:00:c3:de:5c:4d:1e:fc:
         b7:39:fc:b7:40:7f:f0:1c:69:cb:af:0f:87:4f:d1:5e:30:d1:
         d5:7b:07:d7:d6:fe:78:c8:8a:78:a1:2d:f2:d4:3d:11:94:46:
         1c:04:7a:f4:cb:c0:f2:d0:89:9a:73:49:1f:c2:a1:25:15:b9:
         24:32:a2:97:42:b0:57:43:4b:77:fc:12:cb:fa:d7:d2:47:15:
         48:f6:e6:8b:77:4f:89:d9:48:30:d8:9d:14:aa:15:e5:28:0d:
         9d:b5:19:a3:ce:45:e1:c6:a7:d7:42:5c:18:c3:d5:30:83:25:
         e0:d3:89:82:a7:5b:06:35:0f:a6:81:89:c2:3d:0a:4e:bf:b1:
         c4:55:d0:46
-----BEGIN CERTIFICATE-----
MIIC5TCCAc2gAwIBAgIBATANBgkqhkiG9w0BAQsFADA/MQswCQYDVQQGEwJFUzEO
MAwGA1UECgwFT3JnMzExIDAeBgNVBAMMF0NBIHBhcmEgT3JnYW5pemFjaW9uIDMx
MB4XDTE1MTIwNjIxMDIwMFoXDTE2MTIwNTIxMDIwMFowNDELMAkGA1UEBhMCRVMx
DjAMBgNVBAoMBU9yZzMxMRUwEwYDVQQDDAxzZXJ2ZXIub3JnMzEwgZ8wDQYJKoZI
hvcNAQEBBQADgY0AMIGJAoGBANwBk0qzEWXlLtVMcc/M5erxFv5VYNzV/m08Pwpq
Vy/14VlCpZj2eoChEihMj5W30eFQenSIw63I7b2NMXvzPkFdFB7JegtZLFs/k8fA
iKBUvQ1PSrhILhUB8wyLa9j30zXmE+hq8YDK6KwTCVhCzPnjwpKUnDJAOKXCj5/3
DbwZAgMBAAGjezB5MAkGA1UdEwQCMAAwLAYJYIZIAYb4QgENBB8WHU9wZW5TU0wg
R2VuZXJhdGVkIENlcnRpZmljYXRlMB0GA1UdDgQWBBRXJMTe8yZGWknT2hNXEK5Q
YKO6bjAfBgNVHSMEGDAWgBQYCukAWgJ7oFuXc8/DXSLakX91dzANBgkqhkiG9w0B
AQsFAAOCAQEAdEMiZeqXf9Uv5G7qJF/8Iqg9oIPxq0kTKGgyE24mFsXEawyU5iYT
VYBwWSYORSt5BoXfNcW+0lPoFzibfuf9RmmvfjtYQocywK6mtQ2avrGVmBXC7AbO
bu8VdecmVhIH9P12wB4dBPXC6xqiSkelm7x2CoJbcTQAw95cTR78tzn8t0B/8Bxp
y68Ph0/RXjDR1XsH19b+eMiKeKEt8tQ9EZRGHAR69MvA8tCJmnNJH8KhJRW5JDKi
l0KwV0NLd/wSy/rX0kcVSPbmi3dPidlIMNidFKoV5SgNnbUZo85F4can10JcGMPV
MIMl4NOJgqdbBjUPpoGJwj0KTr+xxFXQRg==
-----END CERTIFICATE-----
