Certificate:
    Data:
        Version: 3 (0x2)
        Serial Number: 2 (0x2)
    Signature Algorithm: sha256WithRSAEncryption
        Issuer: C=ES, O=Org31, CN=CA para Organizacion 31
        Validity
            Not Before: Dec  6 21:18:38 2015 GMT
            Not After : Dec  5 21:18:38 2016 GMT
        Subject: C=ES, O=Org31, CN=cliente
        Subject Public Key Info:
            Public Key Algorithm: rsaEncryption
                Public-Key: (1024 bit)
                Modulus:
                    00:c0:65:f1:5c:de:74:58:25:66:25:51:c1:a7:bd:
                    77:d2:6f:27:b5:fd:59:d9:e6:0f:60:42:19:00:38:
                    11:db:f6:54:23:cc:fa:be:88:67:d3:ed:73:02:85:
                    1f:3d:48:1c:f6:f5:05:8d:18:fa:1c:79:7d:f1:92:
                    00:d9:0a:8f:10:9b:6a:73:0e:0c:7e:ca:8d:5b:8c:
                    7c:bb:97:8d:ba:73:62:7d:41:da:a7:71:19:70:7f:
                    c3:75:cb:c7:93:e3:ae:7e:81:b7:02:36:c7:f6:10:
                    48:1d:4f:d0:b0:29:26:25:02:1e:70:50:36:c0:ed:
                    05:a0:ba:c1:6e:4d:44:6d:a9
                Exponent: 65537 (0x10001)
        X509v3 extensions:
            X509v3 CRL Distribution Points: 

                Full Name:
                  URI:http://server.org31/crl/org31.CRL

            X509v3 Basic Constraints: 
                CA:FALSE
            Netscape Comment: 
                OpenSSL Generated Certificate
            X509v3 Subject Key Identifier: 
                EE:B5:4D:F7:3D:34:6A:9A:6A:18:22:59:9D:6D:76:22:56:25:3F:FF
            X509v3 Authority Key Identifier: 
                keyid:18:0A:E9:00:5A:02:7B:A0:5B:97:73:CF:C3:5D:22:DA:91:7F:75:77

    Signature Algorithm: sha256WithRSAEncryption
         67:6e:9f:98:4d:b0:b1:36:e4:d6:10:93:4c:1f:1c:8f:44:25:
         e9:39:36:c2:cd:97:b0:90:cb:5c:ae:98:18:ba:9b:64:3e:ff:
         e1:19:33:86:88:86:f6:5b:49:55:e1:9f:44:07:c2:a2:03:45:
         ee:a2:5b:50:ab:ca:5b:3b:ce:36:fa:bb:a6:e5:d4:86:1e:c7:
         2c:2e:d2:ee:72:90:b1:17:8b:86:4d:8c:0b:73:42:cd:9f:83:
         e0:7d:88:cd:34:a8:aa:63:a1:cc:eb:ab:a1:a5:f4:af:87:b6:
         54:80:49:1f:5c:01:c7:1c:c2:9a:4c:36:7d:80:51:05:8b:85:
         a9:5e:5e:72:d1:85:e2:53:09:73:77:12:04:60:b8:a9:bf:11:
         5b:c0:2f:0f:f2:c9:1c:cb:bd:b9:39:05:58:65:bd:ee:12:c1:
         59:52:00:54:ad:2e:93:6f:ea:87:5f:41:01:8f:a8:56:6c:a7:
         4a:d5:98:22:81:d5:36:b8:55:44:b2:d2:16:cc:f7:26:29:4f:
         f9:b4:00:2d:86:ad:7f:dd:93:fb:04:b1:81:50:a4:93:0e:1e:
         c2:02:8c:4c:6f:ec:f6:3e:a7:c5:a7:e1:f3:65:33:29:b4:36:
         85:9c:40:87:36:b4:ce:df:cb:68:d2:b2:67:48:87:ca:85:f0:
         47:e0:f5:33
-----BEGIN CERTIFICATE-----
MIIDFjCCAf6gAwIBAgIBAjANBgkqhkiG9w0BAQsFADA/MQswCQYDVQQGEwJFUzEO
MAwGA1UECgwFT3JnMzExIDAeBgNVBAMMF0NBIHBhcmEgT3JnYW5pemFjaW9uIDMx
MB4XDTE1MTIwNjIxMTgzOFoXDTE2MTIwNTIxMTgzOFowLzELMAkGA1UEBhMCRVMx
DjAMBgNVBAoMBU9yZzMxMRAwDgYDVQQDDAdjbGllbnRlMIGfMA0GCSqGSIb3DQEB
AQUAA4GNADCBiQKBgQDAZfFc3nRYJWYlUcGnvXfSbye1/VnZ5g9gQhkAOBHb9lQj
zPq+iGfT7XMChR89SBz29QWNGPoceX3xkgDZCo8Qm2pzDgx+yo1bjHy7l426c2J9
QdqncRlwf8N1y8eT465+gbcCNsf2EEgdT9CwKSYlAh5wUDbA7QWgusFuTURtqQID
AQABo4GwMIGtMDIGA1UdHwQrMCkwJ6AloCOGIWh0dHA6Ly9zZXJ2ZXIub3JnMzEv
Y3JsL29yZzMxLkNSTDAJBgNVHRMEAjAAMCwGCWCGSAGG+EIBDQQfFh1PcGVuU1NM
IEdlbmVyYXRlZCBDZXJ0aWZpY2F0ZTAdBgNVHQ4EFgQU7rVN9z00appqGCJZnW12
IlYlP/8wHwYDVR0jBBgwFoAUGArpAFoCe6Bbl3PPw10i2pF/dXcwDQYJKoZIhvcN
AQELBQADggEBAGdun5hNsLE25NYQk0wfHI9EJek5NsLNl7CQy1yumBi6m2Q+/+EZ
M4aIhvZbSVXhn0QHwqIDRe6iW1Cryls7zjb6u6bl1IYexywu0u5ykLEXi4ZNjAtz
Qs2fg+B9iM00qKpjoczrq6Gl9K+HtlSASR9cAcccwppMNn2AUQWLhaleXnLRheJT
CXN3EgRguKm/EVvALw/yyRzLvbk5BVhlve4SwVlSAFStLpNv6odfQQGPqFZsp0rV
mCKB1Ta4VUSy0hbM9yYpT/m0AC2GrX/dk/sEsYFQpJMOHsICjExv7PY+p8Wn4fNl
Mym0NoWcQIc2tM7fy2jSsmdIh8qF8Efg9TM=
-----END CERTIFICATE-----
